target datalayout = "e-m:e-p270:32:32-p271:32:32-p272:64:64-i64:64-i128:128-f80:128-n8:16:32:64-S128"
target triple = "x86_64-pc-linux-gnu"

%struct.printTableOpt = type { i32, i16, i32, i32, i16, i16, i32, i8, i8, i8, i8, i64, ptr, %struct.separator, %struct.separator, [2 x i8], i8, ptr, i32, i32, i32, i32, i32, i32 }
%struct.separator = type { ptr, i8 }
%struct.printTableContent = type { ptr, ptr, i32, i32, ptr, ptr, ptr, ptr, i64, ptr, ptr, ptr, ptr, ptr }

@stderr = external global ptr, align 8
@.str.23 = private unnamed_addr constant [66 x i8] c"Cannot add header to table content: column count of %d exceeded.\0A\00", align 1

; Function Attrs: nounwind uwtable
define dso_local void @printTableAddHeader(ptr noundef %0, ptr noundef %1, i1 noundef zeroext %2, i8 noundef signext %3) #0 {
  %5 = alloca ptr, align 8
  %6 = alloca ptr, align 8
  %7 = alloca i8, align 1
  %8 = alloca i8, align 1
  store ptr %0, ptr %5, align 8
  store ptr %1, ptr %6, align 8
  %9 = zext i1 %2 to i8
  store i8 %9, ptr %7, align 1
  store i8 %3, ptr %8, align 1
  %10 = load ptr, ptr %5, align 8
  %11 = getelementptr inbounds nuw %struct.printTableContent, ptr %10, i32 0, i32 5
  %12 = load ptr, ptr %11, align 8
  %13 = load ptr, ptr %5, align 8
  %14 = getelementptr inbounds nuw %struct.printTableContent, ptr %13, i32 0, i32 4
  %15 = load ptr, ptr %14, align 8
  %16 = load ptr, ptr %5, align 8
  %17 = getelementptr inbounds nuw %struct.printTableContent, ptr %16, i32 0, i32 2
  %18 = load i32, ptr %17, align 8
  %19 = sext i32 %18 to i64
  %20 = getelementptr inbounds ptr, ptr %15, i64 %19
  %21 = icmp uge ptr %12, %20
  br i1 %21, label %22, label %28

22:                                               ; preds = %4
  %23 = load ptr, ptr @stderr, align 8
  %24 = load ptr, ptr %5, align 8
  %25 = getelementptr inbounds nuw %struct.printTableContent, ptr %24, i32 0, i32 2
  %26 = load i32, ptr %25, align 8
  %27 = call i32 (ptr, ptr, ...) @pg_fprintf(ptr noundef %23, ptr noundef @.str.23, i32 noundef %26)
  call void @exit(i32 noundef 1) #10
  unreachable

28:                                               ; preds = %4
  %29 = load ptr, ptr %6, align 8
  %30 = load ptr, ptr %5, align 8
  %31 = getelementptr inbounds nuw %struct.printTableContent, ptr %30, i32 0, i32 0
  %32 = load ptr, ptr %31, align 8
  %33 = getelementptr inbounds nuw %struct.printTableOpt, ptr %32, i32 0, i32 18
  %34 = load i32, ptr %33, align 8
  %35 = call ptr @mbvalidate(ptr noundef %29, i32 noundef %34)
  %36 = load ptr, ptr %5, align 8
  %37 = getelementptr inbounds nuw %struct.printTableContent, ptr %36, i32 0, i32 5
  %38 = load ptr, ptr %37, align 8
  store ptr %35, ptr %38, align 8
  %39 = load ptr, ptr %5, align 8
  %40 = getelementptr inbounds nuw %struct.printTableContent, ptr %39, i32 0, i32 5
  %41 = load ptr, ptr %40, align 8
  %42 = getelementptr inbounds nuw ptr, ptr %41, i32 1
  store ptr %42, ptr %40, align 8
  %43 = load i8, ptr %8, align 1
  %44 = load ptr, ptr %5, align 8
  %45 = getelementptr inbounds nuw %struct.printTableContent, ptr %44, i32 0, i32 13
  %46 = load ptr, ptr %45, align 8
  store i8 %43, ptr %46, align 1
  %47 = load ptr, ptr %5, align 8
  %48 = getelementptr inbounds nuw %struct.printTableContent, ptr %47, i32 0, i32 13
  %49 = load ptr, ptr %48, align 8
  %50 = getelementptr inbounds nuw i8, ptr %49, i32 1
  store ptr %50, ptr %48, align 8
  ret void
}