; Function Attrs: nounwind uwtable
define dso_local void @printTableAddHeader(ptr noundef captures(none) %0, ptr noundef %1, i1 noundef zeroext %2, i8 noundef signext %3) local_unnamed_addr #3 {
  %5 = getelementptr inbounds nuw i8, ptr %0, i64 32
  %6 = load ptr, ptr %5, align 8
  %7 = getelementptr inbounds nuw i8, ptr %0, i64 24
  %8 = load ptr, ptr %7, align 8
  %9 = getelementptr inbounds nuw i8, ptr %0, i64 16
  %10 = load i32, ptr %9, align 8
  %11 = sext i32 %10 to i64
  %12 = getelementptr inbounds ptr, ptr %8, i64 %11
  %.not = icmp ult ptr %6, %12
  br i1 %.not, label %16, label %13

13:                                               ; preds = %4
  %14 = load ptr, ptr @stderr, align 8
  %15 = tail call i32 (ptr, ptr, ...) @pg_fprintf(ptr noundef %14, ptr noundef nonnull @.str.23, i32 noundef %10) #19
  tail call void @exit(i32 noundef 1) #21
  unreachable

16:                                               ; preds = %4
  %17 = load ptr, ptr %0, align 8
  %18 = getelementptr inbounds nuw i8, ptr %17, i64 96
  %19 = load i32, ptr %18, align 8
  %20 = tail call ptr @mbvalidate(ptr noundef %1, i32 noundef %19) #19
  %21 = load ptr, ptr %5, align 8
  store ptr %20, ptr %21, align 8
  %22 = load ptr, ptr %5, align 8
  %23 = getelementptr inbounds nuw i8, ptr %22, i64 8
  store ptr %23, ptr %5, align 8
  %24 = getelementptr inbounds nuw i8, ptr %0, i64 96
  %25 = load ptr, ptr %24, align 8
  store i8 %3, ptr %25, align 1
  %26 = load ptr, ptr %24, align 8
  %27 = getelementptr inbounds nuw i8, ptr %26, i64 1
  store ptr %27, ptr %24, align 8
  ret void
}